Certificate:
    Data:
        Version: 3 (0x2)
        Serial Number: 4097 (0x1001)
    Signature Algorithm: sha256WithRSAEncryption
        Issuer: C=US, ST=CA, L=Fremont, O=CloudAwan, OU=RD, CN=Kubernetes/emailAddress=cloudycchang@gmail.com
        Validity
            Not Before: Jul 14 01:16:39 2016 GMT
            Not After : Jul 12 01:16:39 2026 GMT
        Subject: C=US, ST=CA, O=CloudAwan, OU=RD, CN=private-registry/emailAddress=ycchang@cloudawan.com
        Subject Public Key Info:
            Public Key Algorithm: rsaEncryption
                Public-Key: (2048 bit)
                Modulus:
                    00:92:07:07:31:cd:99:43:ef:70:35:0f:ec:e0:7f:
                    18:2d:0f:6a:fc:66:c7:e5:1c:4f:24:af:75:29:d9:
                    2b:4a:81:8b:51:24:32:eb:bd:83:c7:50:ca:8a:af:
                    7f:f5:d7:9b:b7:4b:23:97:ef:07:4c:96:24:8d:b4:
                    68:7b:10:64:dc:ed:2b:c5:5b:80:db:d5:bb:eb:67:
                    f2:58:bc:d8:87:67:b7:c4:37:4d:5c:1b:b2:e2:69:
                    71:df:d6:21:8d:8f:09:52:a9:08:00:f6:cd:31:3d:
                    85:7f:ae:8d:39:c6:e4:44:1e:c8:03:84:38:07:ca:
                    5f:fa:85:86:6a:4e:41:51:30:5b:fd:e6:02:84:6c:
                    80:df:b1:8c:95:00:2a:f8:e4:07:28:26:68:0e:5d:
                    ad:3c:54:09:69:3f:f1:70:c6:df:1e:d9:d0:92:0a:
                    90:b3:0a:19:47:87:e4:d5:db:81:b8:2a:87:42:f7:
                    8b:a1:5a:1b:c8:72:cc:76:ba:78:fc:29:c0:f0:9f:
                    b4:b4:42:60:a0:57:77:a3:80:97:a0:6f:4a:c5:4f:
                    91:3b:65:65:47:d8:5c:07:89:b9:88:cd:0f:a7:9b:
                    96:eb:2f:0f:01:f7:38:84:8f:d8:de:8f:2c:d8:b2:
                    cc:8c:ae:46:ee:5a:eb:fc:29:bf:b0:30:98:a7:50:
                    d3:1d
                Exponent: 65537 (0x10001)
        X509v3 extensions:
            X509v3 Basic Constraints: 
                CA:FALSE
            Netscape Comment: 
                OpenSSL Generated Certificate
            X509v3 Subject Key Identifier: 
                ED:44:67:73:43:B2:AA:7E:4D:4F:C9:35:5F:49:D7:F7:FE:75:11:7A
            X509v3 Authority Key Identifier: 
                keyid:88:EB:DA:2D:92:FA:C1:24:9D:45:CD:3F:50:71:7B:E8:B0:FD:3F:A9

    Signature Algorithm: sha256WithRSAEncryption
         5a:2b:f8:80:77:65:c1:91:3d:fb:67:9a:1f:80:68:9b:0e:a0:
         29:6f:31:0d:23:b2:21:6b:20:55:e2:9d:9b:a3:35:30:1f:f3:
         5b:fe:6c:12:f2:b5:02:be:72:70:60:22:1b:6f:fe:b6:5e:46:
         3b:1b:ca:73:38:0d:07:76:12:25:c4:28:49:81:32:b5:7c:ba:
         20:c0:35:ca:23:1c:81:3b:40:a1:e8:04:47:93:56:46:b0:4e:
         68:64:37:3d:33:ad:a1:b9:61:36:00:c4:3f:8f:a3:69:33:4e:
         0f:8e:4e:f6:dc:a0:10:07:58:a4:e2:72:aa:cb:ca:72:a3:42:
         35:63:a6:03:0c:5f:4d:aa:b0:86:1b:66:c2:f5:83:f8:aa:5b:
         a3:79:99:bc:77:f5:b3:05:a5:04:be:c8:cb:08:ae:6a:e9:ad:
         3d:0c:ff:78:13:b8:77:cb:90:c6:dd:5e:fb:0a:7f:5b:34:c4:
         aa:b8:fc:5b:40:1b:d8:41:f8:0e:cd:38:4f:68:0c:69:42:63:
         40:f9:c3:cb:af:f2:83:67:57:b0:e7:c1:4c:96:ca:c3:d8:9e:
         91:5d:8b:df:9c:e2:60:cf:8e:10:00:62:f4:37:32:a2:e6:13:
         6b:e7:5d:7d:9c:dd:d4:e1:dd:36:c9:97:5e:8f:86:9d:cf:08:
         f5:29:87:f4
-----BEGIN CERTIFICATE-----
MIID/TCCAuWgAwIBAgICEAEwDQYJKoZIhvcNAQELBQAwgYkxCzAJBgNVBAYTAlVT
MQswCQYDVQQIDAJDQTEQMA4GA1UEBwwHRnJlbW9udDESMBAGA1UECgwJQ2xvdWRB
d2FuMQswCQYDVQQLDAJSRDETMBEGA1UEAwwKS3ViZXJuZXRlczElMCMGCSqGSIb3
DQEJARYWY2xvdWR5Y2NoYW5nQGdtYWlsLmNvbTAeFw0xNjA3MTQwMTE2MzlaFw0y
NjA3MTIwMTE2MzlaMHwxCzAJBgNVBAYTAlVTMQswCQYDVQQIDAJDQTESMBAGA1UE
CgwJQ2xvdWRBd2FuMQswCQYDVQQLDAJSRDEZMBcGA1UEAwwQcHJpdmF0ZS1yZWdp
c3RyeTEkMCIGCSqGSIb3DQEJARYVeWNjaGFuZ0BjbG91ZGF3YW4uY29tMIIBIjAN
BgkqhkiG9w0BAQEFAAOCAQ8AMIIBCgKCAQEAkgcHMc2ZQ+9wNQ/s4H8YLQ9q/GbH
5RxPJK91KdkrSoGLUSQy672Dx1DKiq9/9debt0sjl+8HTJYkjbRoexBk3O0rxVuA
29W762fyWLzYh2e3xDdNXBuy4mlx39YhjY8JUqkIAPbNMT2Ff66NOcbkRB7IA4Q4
B8pf+oWGak5BUTBb/eYChGyA37GMlQAq+OQHKCZoDl2tPFQJaT/xcMbfHtnQkgqQ
swoZR4fk1duBuCqHQveLoVobyHLMdrp4/CnA8J+0tEJgoFd3o4CXoG9KxU+RO2Vl
R9hcB4m5iM0Pp5uW6y8PAfc4hI/Y3o8s2LLMjK5G7lrr/Cm/sDCYp1DTHQIDAQAB
o3sweTAJBgNVHRMEAjAAMCwGCWCGSAGG+EIBDQQfFh1PcGVuU1NMIEdlbmVyYXRl
ZCBDZXJ0aWZpY2F0ZTAdBgNVHQ4EFgQU7URnc0Oyqn5NT8k1X0nX9/51EXowHwYD
VR0jBBgwFoAUiOvaLZL6wSSdRc0/UHF76LD9P6kwDQYJKoZIhvcNAQELBQADggEB
AFor+IB3ZcGRPftnmh+AaJsOoClvMQ0jsiFrIFXinZujNTAf81v+bBLytQK+cnBg
Ihtv/rZeRjsbynM4DQd2EiXEKEmBMrV8uiDANcojHIE7QKHoBEeTVkawTmhkNz0z
raG5YTYAxD+Po2kzTg+OTvbcoBAHWKTicqrLynKjQjVjpgMMX02qsIYbZsL1g/iq
W6N5mbx39bMFpQS+yMsIrmrprT0M/3gTuHfLkMbdXvsKf1s0xKq4/FtAG9hB+A7N
OE9oDGlCY0D5w8uv8oNnV7DnwUyWysPYnpFdi9+c4mDPjhAAYvQ3MqLmE2vnXX2c
3dTh3TbJl16Php3PCPUph/Q=
-----END CERTIFICATE-----
